; Function Attrs: mustprogress uwtable
define void @_ZN7rocksdb18WriteBatchInternal21CheckSlicePartsLengthERKNS_10SlicePartsES3_(ptr noalias sret(%"class.rocksdb::Status") align 8 %agg.result, ptr nocapture noundef nonnull readonly align 8 dereferenceable(12) %key, ptr nocapture noundef nonnull readonly align 8 dereferenceable(12) %value) local_unnamed_addr #2 align 2 personality ptr @__gxx_personality_v0 {
entry:
  %ref.tmp = alloca %"class.rocksdb::Slice", align 8
  %ref.tmp3 = alloca %"class.rocksdb::Slice", align 8
  %ref.tmp21 = alloca %"class.rocksdb::Slice", align 8
  %ref.tmp22 = alloca %"class.rocksdb::Slice", align 8
  %num_parts = getelementptr inbounds i8, ptr %key, i64 8
  %0 = load i32, ptr %num_parts, align 8
  %cmp15 = icmp sgt i32 %0, 0
  br i1 %cmp15, label %for.body.lr.ph, label %for.cond5.preheader

for.body.lr.ph:                                   ; preds = %entry
  %1 = load ptr, ptr %key, align 8
  %wide.trip.count = zext nneg i32 %0 to i64
  br label %for.body

for.body:                                         ; preds = %for.body.lr.ph, %for.body
  %indvars.iv = phi i64 [ 0, %for.body.lr.ph ], [ %indvars.iv.next, %for.body ]
  %total_key_bytes.016 = phi i64 [ 0, %for.body.lr.ph ], [ %add, %for.body ]
  %size_.i = getelementptr inbounds %"class.rocksdb::Slice", ptr %1, i64 %indvars.iv, i32 1
  %2 = load i64, ptr %size_.i, align 8
  %add = add i64 %2, %total_key_bytes.016
  %indvars.iv.next = add nuw nsw i64 %indvars.iv, 1
  %exitcond.not = icmp eq i64 %indvars.iv.next, %wide.trip.count
  br i1 %exitcond.not, label %for.end, label %for.body, !llvm.loop !38

for.end:                                          ; preds = %for.body
  %3 = icmp ult i64 %add, 4294967295
  br i1 %3, label %for.cond5.preheader, label %if.then

for.cond5.preheader:                              ; preds = %entry, %for.end
  %num_parts6 = getelementptr inbounds i8, ptr %value, i64 8
  %4 = load i32, ptr %num_parts6, align 8
  %cmp718 = icmp sgt i32 %4, 0
  br i1 %cmp718, label %for.body8.lr.ph, label %if.end23

for.body8.lr.ph:                                  ; preds = %for.cond5.preheader
  %5 = load ptr, ptr %value, align 8
  %wide.trip.count26 = zext nneg i32 %4 to i64
  br label %for.body8

if.then:                                          ; preds = %for.end
  store ptr @.str.22, ptr %ref.tmp, align 8
  %size_.i9 = getelementptr inbounds i8, ptr %ref.tmp, i64 8
  store i64 16, ptr %size_.i9, align 8
  store ptr @.str.28, ptr %ref.tmp3, align 8
  %size_.i10 = getelementptr inbounds i8, ptr %ref.tmp3, i64 8
  store i64 0, ptr %size_.i10, align 8
  call void @_ZN7rocksdb6StatusC2ENS0_4CodeENS0_7SubCodeERKNS_5SliceES5_NS0_8SeverityE(ptr noundef nonnull align 8 dereferenceable(16) %agg.result, i8 noundef zeroext 4, i8 noundef zeroext 0, ptr noundef nonnull align 8 dereferenceable(16) %ref.tmp, ptr noundef nonnull align 8 dereferenceable(16) %ref.tmp3, i8 noundef zeroext 0)
  br label %return

for.body8:                                        ; preds = %for.body8.lr.ph, %for.body8
  %indvars.iv23 = phi i64 [ 0, %for.body8.lr.ph ], [ %indvars.iv.next24, %for.body8 ]
  %total_value_bytes.019 = phi i64 [ 0, %for.body8.lr.ph ], [ %add13, %for.body8 ]
  %size_.i11 = getelementptr inbounds %"class.rocksdb::Slice", ptr %5, i64 %indvars.iv23, i32 1
  %6 = load i64, ptr %size_.i11, align 8
  %add13 = add i64 %6, %total_value_bytes.019
  %indvars.iv.next24 = add nuw nsw i64 %indvars.iv23, 1
  %exitcond27.not = icmp eq i64 %indvars.iv.next24, %wide.trip.count26
  br i1 %exitcond27.not, label %for.end16, label %for.body8, !llvm.loop !39

for.end16:                                        ; preds = %for.body8
  %7 = icmp ult i64 %add13, 4294967295
  br i1 %7, label %if.end23, label %if.then20

if.then20:                                        ; preds = %for.end16
  store ptr @.str.23, ptr %ref.tmp21, align 8
  %size_.i13 = getelementptr inbounds i8, ptr %ref.tmp21, i64 8
  store i64 18, ptr %size_.i13, align 8
  store ptr @.str.28, ptr %ref.tmp22, align 8
  %size_.i14 = getelementptr inbounds i8, ptr %ref.tmp22, i64 8
  store i64 0, ptr %size_.i14, align 8
  call void @_ZN7rocksdb6StatusC2ENS0_4CodeENS0_7SubCodeERKNS_5SliceES5_NS0_8SeverityE(ptr noundef nonnull align 8 dereferenceable(16) %agg.result, i8 noundef zeroext 4, i8 noundef zeroext 0, ptr noundef nonnull align 8 dereferenceable(16) %ref.tmp21, ptr noundef nonnull align 8 dereferenceable(16) %ref.tmp22, i8 noundef zeroext 0)
  br label %return

if.end23:                                         ; preds = %for.cond5.preheader, %for.end16
  %state_.i.i = getelementptr inbounds i8, ptr %agg.result, i64 8
  store ptr null, ptr %state_.i.i, align 8, !alias.scope !40
  tail call void @llvm.memset.p0.i64(ptr noundef nonnull align 8 dereferenceable(6) %agg.result, i8 0, i64 6, i1 false), !alias.scope !40
  br label %return

return:                                           ; preds = %if.end23, %if.then20, %if.then
  ret void
}